; Function Attrs: mustprogress uwtable
define void @_ZN10open_spiel28RegisterSingleTensorObserverC2ERKNSt7__cxx1112basic_stringIcSt11char_traitsIcESaIcEEE(ptr nonnull readnone align 1 captures(none) %0, ptr noundef nonnull align 8 dereferenceable(32) %1) unnamed_addr #3 align 2 personality ptr @__gxx_personality_v0 {
  %3 = alloca %"class.open_spiel::ObserverRegisterer", align 1
  %4 = alloca %"class.std::__cxx11::basic_string", align 8
  %5 = alloca %"class.std::allocator", align 1
  %6 = alloca %"class.std::function", align 8
  call void @_ZNSaIcEC1Ev(ptr noundef nonnull align 1 dereferenceable(1) %5) #26
  %7 = invoke noundef ptr @_ZNSt7__cxx1112basic_stringIcSt11char_traitsIcESaIcEE13_M_local_dataEv(ptr noundef nonnull align 8 dereferenceable(32) %4)
          to label %.noexc unwind label %20

.noexc:                                           ; preds = %2
  invoke void @_ZNSt7__cxx1112basic_stringIcSt11char_traitsIcESaIcEE12_Alloc_hiderC1EPcRKS3_(ptr noundef nonnull align 8 dereferenceable(32) %4, ptr noundef %7, ptr noundef nonnull align 1 dereferenceable(1) %5)
          to label %.noexc4 unwind label %20

.noexc4:                                          ; preds = %.noexc
  invoke void @_ZNSt7__cxx1112basic_stringIcSt11char_traitsIcESaIcEE12_M_constructIPKcEEvT_S8_St20forward_iterator_tag(ptr noundef nonnull align 8 dereferenceable(32) %4, ptr noundef nonnull @.str.13, ptr noundef nonnull getelementptr inbounds nuw (i8, ptr @.str.13, i64 13))
          to label %_ZNSt7__cxx1112basic_stringIcSt11char_traitsIcESaIcEEC2IS3_EEPKcRKS3_.exit unwind label %8

8:                                                ; preds = %.noexc4
  %9 = landingpad { ptr, i32 }
          cleanup
  call void @_ZNSaIcED2Ev(ptr noundef nonnull align 8 dereferenceable(32) %4) #26
  br label %.body

_ZNSt7__cxx1112basic_stringIcSt11char_traitsIcESaIcEEC2IS3_EEPKcRKS3_.exit: ; preds = %.noexc4
  %10 = getelementptr inbounds nuw i8, ptr %6, i64 16
  %11 = getelementptr inbounds nuw i8, ptr %6, i64 24
  %12 = getelementptr inbounds nuw i8, ptr %6, i64 8
  store i64 0, ptr %12, align 8
  store ptr @_ZN10open_spiel24MakeSingleTensorObserverERKNS_4GameEN4absl7debian28optionalINS_18IIGObservationTypeEEERKSt3mapINSt7__cxx1112basic_stringIcSt11char_traitsIcESaIcEEENS_13GameParameterESt4lessISE_ESaISt4pairIKSE_SF_EEE, ptr %6, align 8
  store ptr @_ZNSt17_Function_handlerIFSt10shared_ptrIN10open_spiel8ObserverEERKNS1_4GameEN4absl7debian28optionalINS1_18IIGObservationTypeEEERKSt3mapINSt7__cxx1112basic_stringIcSt11char_traitsIcESaIcEEENS1_13GameParameterESt4lessISI_ESaISt4pairIKSI_SJ_EEEEPST_E9_M_invokeERKSt9_Any_dataS6_OSB_SS_, ptr %11, align 8
  store ptr @_ZNSt17_Function_handlerIFSt10shared_ptrIN10open_spiel8ObserverEERKNS1_4GameEN4absl7debian28optionalINS1_18IIGObservationTypeEEERKSt3mapINSt7__cxx1112basic_stringIcSt11char_traitsIcESaIcEEENS1_13GameParameterESt4lessISI_ESaISt4pairIKSI_SJ_EEEEPST_E10_M_managerERSt9_Any_dataRKSW_St18_Manager_operation, ptr %10, align 8
  invoke void @_ZN10open_spiel18ObserverRegistererC1ERKNSt7__cxx1112basic_stringIcSt11char_traitsIcESaIcEEES8_St8functionIFSt10shared_ptrINS_8ObserverEERKNS_4GameEN4absl7debian28optionalINS_18IIGObservationTypeEEERKSt3mapIS6_NS_13GameParameterESt4lessIS6_ESaISt4pairIS7_SM_EEEEE(ptr noundef nonnull align 1 dereferenceable(1) %3, ptr noundef nonnull align 8 dereferenceable(32) %1, ptr noundef nonnull align 8 dereferenceable(32) %4, ptr noundef nonnull %6)
          to label %13 unwind label %22

13:                                               ; preds = %_ZNSt7__cxx1112basic_stringIcSt11char_traitsIcESaIcEEC2IS3_EEPKcRKS3_.exit
  %14 = load ptr, ptr %10, align 8
  %.not.i.i = icmp eq ptr %14, null
  br i1 %.not.i.i, label %_ZNSt8functionIFSt10shared_ptrIN10open_spiel8ObserverEERKNS1_4GameEN4absl7debian28optionalINS1_18IIGObservationTypeEEERKSt3mapINSt7__cxx1112basic_stringIcSt11char_traitsIcESaIcEEENS1_13GameParameterESt4lessISI_ESaISt4pairIKSI_SJ_EEEEED2Ev.exit, label %15

15:                                               ; preds = %13
  %16 = invoke noundef zeroext i1 %14(ptr noundef nonnull align 8 dereferenceable(32) %6, ptr noundef nonnull align 8 dereferenceable(32) %6, i32 noundef 3)
          to label %_ZNSt8functionIFSt10shared_ptrIN10open_spiel8ObserverEERKNS1_4GameEN4absl7debian28optionalINS1_18IIGObservationTypeEEERKSt3mapINSt7__cxx1112basic_stringIcSt11char_traitsIcESaIcEEENS1_13GameParameterESt4lessISI_ESaISt4pairIKSI_SJ_EEEEED2Ev.exit unwind label %17

17:                                               ; preds = %15
  %18 = landingpad { ptr, i32 }
          catch ptr null
  %19 = extractvalue { ptr, i32 } %18, 0
  call void @__clang_call_terminate(ptr %19) #27
  unreachable

_ZNSt8functionIFSt10shared_ptrIN10open_spiel8ObserverEERKNS1_4GameEN4absl7debian28optionalINS1_18IIGObservationTypeEEERKSt3mapINSt7__cxx1112basic_stringIcSt11char_traitsIcESaIcEEENS1_13GameParameterESt4lessISI_ESaISt4pairIKSI_SJ_EEEEED2Ev.exit: ; preds = %13, %15
  call void @_ZNSt7__cxx1112basic_stringIcSt11char_traitsIcESaIcEED1Ev(ptr noundef nonnull align 8 dereferenceable(32) %4) #26
  call void @_ZNSaIcED1Ev(ptr noundef nonnull align 1 dereferenceable(1) %5) #26
  ret void

20:                                               ; preds = %.noexc, %2
  %21 = landingpad { ptr, i32 }
          cleanup
  br label %.body

22:                                               ; preds = %_ZNSt7__cxx1112basic_stringIcSt11char_traitsIcESaIcEEC2IS3_EEPKcRKS3_.exit
  %23 = landingpad { ptr, i32 }
          cleanup
  %24 = load ptr, ptr %10, align 8
  %.not.i.i5 = icmp eq ptr %24, null
  br i1 %.not.i.i5, label %_ZNSt8functionIFSt10shared_ptrIN10open_spiel8ObserverEERKNS1_4GameEN4absl7debian28optionalINS1_18IIGObservationTypeEEERKSt3mapINSt7__cxx1112basic_stringIcSt11char_traitsIcESaIcEEENS1_13GameParameterESt4lessISI_ESaISt4pairIKSI_SJ_EEEEED2Ev.exit6, label %25

25:                                               ; preds = %22
  %26 = invoke noundef zeroext i1 %24(ptr noundef nonnull align 8 dereferenceable(32) %6, ptr noundef nonnull align 8 dereferenceable(32) %6, i32 noundef 3)
          to label %_ZNSt8functionIFSt10shared_ptrIN10open_spiel8ObserverEERKNS1_4GameEN4absl7debian28optionalINS1_18IIGObservationTypeEEERKSt3mapINSt7__cxx1112basic_stringIcSt11char_traitsIcESaIcEEENS1_13GameParameterESt4lessISI_ESaISt4pairIKSI_SJ_EEEEED2Ev.exit6 unwind label %27

27:                                               ; preds = %25
  %28 = landingpad { ptr, i32 }
          catch ptr null
  %29 = extractvalue { ptr, i32 } %28, 0
  call void @__clang_call_terminate(ptr %29) #27
  unreachable

_ZNSt8functionIFSt10shared_ptrIN10open_spiel8ObserverEERKNS1_4GameEN4absl7debian28optionalINS1_18IIGObservationTypeEEERKSt3mapINSt7__cxx1112basic_stringIcSt11char_traitsIcESaIcEEENS1_13GameParameterESt4lessISI_ESaISt4pairIKSI_SJ_EEEEED2Ev.exit6: ; preds = %22, %25
  call void @_ZNSt7__cxx1112basic_stringIcSt11char_traitsIcESaIcEED1Ev(ptr noundef nonnull align 8 dereferenceable(32) %4) #26
  br label %.body

.body:                                            ; preds = %20, %8, %_ZNSt8functionIFSt10shared_ptrIN10open_spiel8ObserverEERKNS1_4GameEN4absl7debian28optionalINS1_18IIGObservationTypeEEERKSt3mapINSt7__cxx1112basic_stringIcSt11char_traitsIcESaIcEEENS1_13GameParameterESt4lessISI_ESaISt4pairIKSI_SJ_EEEEED2Ev.exit6
  %.pn = phi { ptr, i32 } [ %23, %_ZNSt8functionIFSt10shared_ptrIN10open_spiel8ObserverEERKNS1_4GameEN4absl7debian28optionalINS1_18IIGObservationTypeEEERKSt3mapINSt7__cxx1112basic_stringIcSt11char_traitsIcESaIcEEENS1_13GameParameterESt4lessISI_ESaISt4pairIKSI_SJ_EEEEED2Ev.exit6 ], [ %21, %20 ], [ %9, %8 ]
  call void @_ZNSaIcED1Ev(ptr noundef nonnull align 1 dereferenceable(1) %5) #26
  resume { ptr, i32 } %.pn
}